target datalayout = "e-m:e-p270:32:32-p271:32:32-p272:64:64-i64:64-i128:128-f80:128-n8:16:32:64-S128"
target triple = "x86_64-pc-linux-gnu"

%struct.URLContext = type { ptr, ptr, ptr, ptr, i32, i32, i32, i32, %struct.AVIOInterruptCB, i64, ptr, ptr, i32 }
%struct.AVIOInterruptCB = type { ptr, ptr }
%struct.TeeContext = type { i32, ptr }
%struct.ChildContext = type { ptr }

; Function Attrs: nounwind uwtable
define internal i32 @tee_close(ptr noundef %0) #0 {
  %2 = alloca ptr, align 8
  %3 = alloca ptr, align 8
  %4 = alloca i32, align 4
  %5 = alloca i32, align 4
  %6 = alloca i32, align 4
  store ptr %0, ptr %2, align 8, !tbaa !4
  call void @llvm.lifetime.start.p0(i64 8, ptr %3) #6
  %7 = load ptr, ptr %2, align 8, !tbaa !4
  %8 = getelementptr inbounds nuw %struct.URLContext, ptr %7, i32 0, i32 2
  %9 = load ptr, ptr %8, align 8, !tbaa !13
  store ptr %9, ptr %3, align 8, !tbaa !19
  call void @llvm.lifetime.start.p0(i64 4, ptr %4) #6
  call void @llvm.lifetime.start.p0(i64 4, ptr %5) #6
  store i32 0, ptr %5, align 4, !tbaa !11
  store i32 0, ptr %4, align 4, !tbaa !11
  br label %10

10:                                               ; preds = %30, %1
  %11 = load i32, ptr %4, align 4, !tbaa !11
  %12 = load ptr, ptr %3, align 8, !tbaa !19
  %13 = getelementptr inbounds nuw %struct.TeeContext, ptr %12, i32 0, i32 0
  %14 = load i32, ptr %13, align 8, !tbaa !27
  %15 = icmp slt i32 %11, %14
  br i1 %15, label %16, label %33

16:                                               ; preds = %10
  call void @llvm.lifetime.start.p0(i64 4, ptr %6) #6
  %17 = load ptr, ptr %3, align 8, !tbaa !19
  %18 = getelementptr inbounds nuw %struct.TeeContext, ptr %17, i32 0, i32 1
  %19 = load ptr, ptr %18, align 8, !tbaa !24
  %20 = load i32, ptr %4, align 4, !tbaa !11
  %21 = sext i32 %20 to i64
  %22 = getelementptr inbounds %struct.ChildContext, ptr %19, i64 %21
  %23 = getelementptr inbounds nuw %struct.ChildContext, ptr %22, i32 0, i32 0
  %24 = call i32 @ffurl_closep(ptr noundef %23)
  store i32 %24, ptr %6, align 4, !tbaa !11
  %25 = load i32, ptr %6, align 4, !tbaa !11
  %26 = icmp slt i32 %25, 0
  br i1 %26, label %27, label %29

27:                                               ; preds = %16
  %28 = load i32, ptr %6, align 4, !tbaa !11
  store i32 %28, ptr %5, align 4, !tbaa !11
  br label %29

29:                                               ; preds = %27, %16
  call void @llvm.lifetime.end.p0(i64 4, ptr %6) #6
  br label %30

30:                                               ; preds = %29
  %31 = load i32, ptr %4, align 4, !tbaa !11
  %32 = add nsw i32 %31, 1
  store i32 %32, ptr %4, align 4, !tbaa !11
  br label %10, !llvm.loop !40

33:                                               ; preds = %10
  %34 = load ptr, ptr %3, align 8, !tbaa !19
  %35 = getelementptr inbounds nuw %struct.TeeContext, ptr %34, i32 0, i32 1
  call void @av_freep(ptr noundef %35)
  %36 = load ptr, ptr %3, align 8, !tbaa !19
  %37 = getelementptr inbounds nuw %struct.TeeContext, ptr %36, i32 0, i32 0
  store i32 0, ptr %37, align 8, !tbaa !27
  %38 = load i32, ptr %5, align 4, !tbaa !11
  call void @llvm.lifetime.end.p0(i64 4, ptr %5) #6
  call void @llvm.lifetime.end.p0(i64 4, ptr %4) #6
  call void @llvm.lifetime.end.p0(i64 8, ptr %3) #6
  ret i32 %38
}