; Function Attrs: nounwind uwtable
define internal range(i32 -2147483648, 1) i32 @tee_close(ptr noundef readonly captures(none) %0) #0 {
  %2 = getelementptr inbounds nuw i8, ptr %0, i64 16
  %3 = load ptr, ptr %2, align 8, !tbaa !9
  %4 = load i32, ptr %3, align 8, !tbaa !17
  %5 = icmp sgt i32 %4, 0
  br i1 %5, label %.lr.ph, label %._crit_edge

.lr.ph:                                           ; preds = %1
  %6 = getelementptr inbounds nuw i8, ptr %3, i64 8
  br label %7

7:                                                ; preds = %.lr.ph, %7
  %indvars.iv = phi i64 [ 0, %.lr.ph ], [ %indvars.iv.next, %7 ]
  %.01012 = phi i32 [ 0, %.lr.ph ], [ %spec.select, %7 ]
  %8 = load ptr, ptr %6, align 8, !tbaa !22
  %9 = getelementptr inbounds nuw %struct.ChildContext, ptr %8, i64 %indvars.iv
  %10 = tail call i32 @ffurl_closep(ptr noundef %9) #4
  %11 = icmp slt i32 %10, 0
  %spec.select = select i1 %11, i32 %10, i32 %.01012
  %indvars.iv.next = add nuw nsw i64 %indvars.iv, 1
  %12 = load i32, ptr %3, align 8, !tbaa !17
  %13 = sext i32 %12 to i64
  %14 = icmp slt i64 %indvars.iv.next, %13
  br i1 %14, label %7, label %._crit_edge, !llvm.loop !33

._crit_edge:                                      ; preds = %7, %1
  %.010.lcssa = phi i32 [ 0, %1 ], [ %spec.select, %7 ]
  %15 = getelementptr inbounds nuw i8, ptr %3, i64 8
  tail call void @av_freep(ptr noundef nonnull %15) #4
  store i32 0, ptr %3, align 8, !tbaa !17
  ret i32 %.010.lcssa
}